target datalayout = "e-m:e-p270:32:32-p271:32:32-p272:64:64-i64:64-i128:128-f80:128-n8:16:32:64-S128"
target triple = "x86_64-pc-linux-gnu"

%"class.std::__cxx11::basic_string" = type { %"struct.std::__cxx11::basic_string<char>::_Alloc_hider", i64, %union.anon }
%"struct.std::__cxx11::basic_string<char>::_Alloc_hider" = type { ptr }
%union.anon = type { i64, [8 x i8] }
%"struct.faiss::OperatingPoints" = type { %"class.std::vector.8", %"class.std::vector.8" }
%"class.std::vector.8" = type { %"struct.std::_Vector_base.9" }
%"struct.std::_Vector_base.9" = type { %"struct.std::_Vector_base<faiss::OperatingPoint, std::allocator<faiss::OperatingPoint>>::_Vector_impl" }
%"struct.std::_Vector_base<faiss::OperatingPoint, std::allocator<faiss::OperatingPoint>>::_Vector_impl" = type { %"struct.std::_Vector_base<faiss::OperatingPoint, std::allocator<faiss::OperatingPoint>>::_Vector_impl_data" }
%"struct.std::_Vector_base<faiss::OperatingPoint, std::allocator<faiss::OperatingPoint>>::_Vector_impl_data" = type { ptr, ptr, ptr }
%"struct.faiss::OperatingPoint" = type { double, double, %"class.std::__cxx11::basic_string", i64 }

@.str.5 = private unnamed_addr constant [1 x i8] zeroinitializer, align 1
@.str.8 = private unnamed_addr constant [2 x i8] c"w\00", align 1
@stderr = external global ptr, align 8
@.str.9 = private unnamed_addr constant [15 x i8] c"cannot open %s\00", align 1
@.str.10 = private unnamed_addr constant [10 x i8] c"%g %g %s\0A\00", align 1
@.str.11 = private unnamed_addr constant [7 x i8] c"%g %g\0A\00", align 1

; Function Attrs: mustprogress nounwind uwtable
define linkonce_odr noundef nonnull align 8 dereferenceable(56) ptr @_ZNKSt6vectorIN5faiss14OperatingPointESaIS1_EEixEm(ptr noundef nonnull align 8 dereferenceable(24) %0, i64 noundef %1) #1 comdat align 2 {
  %3 = alloca ptr, align 8
  %4 = alloca i64, align 8
  store ptr %0, ptr %3, align 8
  store i64 %1, ptr %4, align 8
  %5 = load ptr, ptr %3, align 8
  %6 = getelementptr inbounds %"struct.std::_Vector_base.9", ptr %5, i32 0, i32 0
  %7 = getelementptr inbounds %"struct.std::_Vector_base<faiss::OperatingPoint, std::allocator<faiss::OperatingPoint>>::_Vector_impl_data", ptr %6, i32 0, i32 0
  %8 = load ptr, ptr %7, align 8
  %9 = load i64, ptr %4, align 8
  %10 = getelementptr inbounds %"struct.faiss::OperatingPoint", ptr %8, i64 %9
  ret ptr %10
}

; Function Attrs: mustprogress nounwind uwtable
define linkonce_odr noundef i64 @_ZNKSt6vectorIN5faiss14OperatingPointESaIS1_EE4sizeEv(ptr noundef nonnull align 8 dereferenceable(24) %0) #1 comdat align 2 {
  %2 = alloca ptr, align 8
  store ptr %0, ptr %2, align 8
  %3 = load ptr, ptr %2, align 8
  %4 = getelementptr inbounds %"struct.std::_Vector_base.9", ptr %3, i32 0, i32 0
  %5 = getelementptr inbounds %"struct.std::_Vector_base<faiss::OperatingPoint, std::allocator<faiss::OperatingPoint>>::_Vector_impl_data", ptr %4, i32 0, i32 1
  %6 = load ptr, ptr %5, align 8
  %7 = getelementptr inbounds %"struct.std::_Vector_base.9", ptr %3, i32 0, i32 0
  %8 = getelementptr inbounds %"struct.std::_Vector_base<faiss::OperatingPoint, std::allocator<faiss::OperatingPoint>>::_Vector_impl_data", ptr %7, i32 0, i32 0
  %9 = load ptr, ptr %8, align 8
  %10 = ptrtoint ptr %6 to i64
  %11 = ptrtoint ptr %9 to i64
  %12 = sub i64 %10, %11
  %13 = sdiv exact i64 %12, 56
  ret i64 %13
}

; Function Attrs: mustprogress uwtable
define void @_ZNK5faiss15OperatingPoints18optimal_to_gnuplotEPKc(ptr noundef nonnull align 8 dereferenceable(48) %0, ptr noundef %1) #0 align 2 {
  %3 = alloca ptr, align 8
  %4 = alloca ptr, align 8
  %5 = alloca ptr, align 8
  %6 = alloca double, align 8
  %7 = alloca i32, align 4
  %8 = alloca ptr, align 8
  store ptr %0, ptr %3, align 8
  store ptr %1, ptr %4, align 8
  %9 = load ptr, ptr %3, align 8
  %10 = load ptr, ptr %4, align 8
  %11 = call noalias ptr @fopen(ptr noundef %10, ptr noundef @.str.8)
  store ptr %11, ptr %5, align 8
  %12 = load ptr, ptr %5, align 8
  %13 = icmp ne ptr %12, null
  br i1 %13, label %18, label %14

14:                                               ; preds = %2
  %15 = load ptr, ptr @stderr, align 8
  %16 = load ptr, ptr %4, align 8
  %17 = call i32 (ptr, ptr, ...) @fprintf(ptr noundef %15, ptr noundef @.str.9, ptr noundef %16) #5
  call void @perror(ptr noundef @.str.5)
  call void @abort() #21
  unreachable

18:                                               ; preds = %2
  store double 0.000000e+00, ptr %6, align 8
  store i32 0, ptr %7, align 4
  br label %19

19:                                               ; preds = %50, %18
  %20 = load i32, ptr %7, align 4
  %21 = sext i32 %20 to i64
  %22 = getelementptr inbounds %"struct.faiss::OperatingPoints", ptr %9, i32 0, i32 1
  %23 = call noundef i64 @_ZNKSt6vectorIN5faiss14OperatingPointESaIS1_EE4sizeEv(ptr noundef nonnull align 8 dereferenceable(24) %22) #5
  %24 = icmp ult i64 %21, %23
  br i1 %24, label %25, label %53

25:                                               ; preds = %19
  %26 = getelementptr inbounds %"struct.faiss::OperatingPoints", ptr %9, i32 0, i32 1
  %27 = load i32, ptr %7, align 4
  %28 = sext i32 %27 to i64
  %29 = call noundef nonnull align 8 dereferenceable(56) ptr @_ZNKSt6vectorIN5faiss14OperatingPointESaIS1_EEixEm(ptr noundef nonnull align 8 dereferenceable(24) %26, i64 noundef %28) #5
  store ptr %29, ptr %8, align 8
  %30 = load ptr, ptr %5, align 8
  %31 = load double, ptr %6, align 8
  %32 = load ptr, ptr %8, align 8
  %33 = getelementptr inbounds %"struct.faiss::OperatingPoint", ptr %32, i32 0, i32 1
  %34 = load double, ptr %33, align 8
  %35 = call i32 (ptr, ptr, ...) @fprintf(ptr noundef %30, ptr noundef @.str.11, double noundef %31, double noundef %34) #5
  %36 = load ptr, ptr %5, align 8
  %37 = load ptr, ptr %8, align 8
  %38 = getelementptr inbounds %"struct.faiss::OperatingPoint", ptr %37, i32 0, i32 0
  %39 = load double, ptr %38, align 8
  %40 = load ptr, ptr %8, align 8
  %41 = getelementptr inbounds %"struct.faiss::OperatingPoint", ptr %40, i32 0, i32 1
  %42 = load double, ptr %41, align 8
  %43 = load ptr, ptr %8, align 8
  %44 = getelementptr inbounds %"struct.faiss::OperatingPoint", ptr %43, i32 0, i32 2
  %45 = call noundef ptr @_ZNKSt7__cxx1112basic_stringIcSt11char_traitsIcESaIcEE5c_strEv(ptr noundef nonnull align 8 dereferenceable(32) %44) #5
  %46 = call i32 (ptr, ptr, ...) @fprintf(ptr noundef %36, ptr noundef @.str.10, double noundef %39, double noundef %42, ptr noundef %45) #5
  %47 = load ptr, ptr %8, align 8
  %48 = getelementptr inbounds %"struct.faiss::OperatingPoint", ptr %47, i32 0, i32 0
  %49 = load double, ptr %48, align 8
  store double %49, ptr %6, align 8
  br label %50

50:                                               ; preds = %25
  %51 = load i32, ptr %7, align 4
  %52 = add nsw i32 %51, 1
  store i32 %52, ptr %7, align 4
  br label %19, !llvm.loop !26

53:                                               ; preds = %19
  %54 = load ptr, ptr %5, align 8
  %55 = call i32 @fclose(ptr noundef %54)
  ret void
}