; Function Attrs: mustprogress nounwind uwtable
define void @_ZNK5faiss15OperatingPoints18optimal_to_gnuplotEPKc(ptr nocapture noundef nonnull readonly align 8 dereferenceable(48) %0, ptr noundef %1) local_unnamed_addr #1 align 2 {
  %3 = tail call noalias ptr @fopen(ptr noundef %1, ptr noundef nonnull @.str.8)
  %.not = icmp eq ptr %3, null
  br i1 %.not, label %8, label %.preheader

.preheader:                                       ; preds = %2
  %4 = getelementptr inbounds i8, ptr %0, i64 24
  %5 = getelementptr inbounds i8, ptr %0, i64 32
  %6 = load ptr, ptr %5, align 8
  %7 = load ptr, ptr %4, align 8
  %.not20 = icmp eq ptr %6, %7
  br i1 %.not20, label %._crit_edge, label %.lr.ph

8:                                                ; preds = %2
  %9 = load ptr, ptr @stderr, align 8
  %10 = tail call i32 (ptr, ptr, ...) @fprintf(ptr noundef %9, ptr noundef nonnull @.str.9, ptr noundef %1) #34
  tail call void @perror(ptr noundef nonnull @.str.5) #35
  tail call void @abort() #33
  unreachable

.lr.ph:                                           ; preds = %.preheader, %.lr.ph
  %indvars.iv = phi i64 [ %indvars.iv.next, %.lr.ph ], [ 0, %.preheader ]
  %11 = phi ptr [ %23, %.lr.ph ], [ %7, %.preheader ]
  %.019 = phi double [ %21, %.lr.ph ], [ 0.000000e+00, %.preheader ]
  %12 = getelementptr inbounds %"struct.faiss::OperatingPoint", ptr %11, i64 %indvars.iv
  %13 = getelementptr inbounds i8, ptr %12, i64 8
  %14 = load double, ptr %13, align 8
  %15 = tail call i32 (ptr, ptr, ...) @fprintf(ptr noundef nonnull %3, ptr noundef nonnull @.str.11, double noundef %.019, double noundef %14) #14
  %16 = load double, ptr %12, align 8
  %17 = load double, ptr %13, align 8
  %18 = getelementptr inbounds i8, ptr %12, i64 16
  %19 = tail call noundef ptr @_ZNKSt7__cxx1112basic_stringIcSt11char_traitsIcESaIcEE5c_strEv(ptr noundef nonnull align 8 dereferenceable(32) %18) #14
  %20 = tail call i32 (ptr, ptr, ...) @fprintf(ptr noundef nonnull %3, ptr noundef nonnull @.str.10, double noundef %16, double noundef %17, ptr noundef %19) #14
  %21 = load double, ptr %12, align 8
  %indvars.iv.next = add nuw nsw i64 %indvars.iv, 1
  %22 = load ptr, ptr %5, align 8
  %23 = load ptr, ptr %4, align 8
  %24 = ptrtoint ptr %22 to i64
  %25 = ptrtoint ptr %23 to i64
  %26 = sub i64 %24, %25
  %27 = sdiv exact i64 %26, 56
  %28 = icmp ugt i64 %27, %indvars.iv.next
  br i1 %28, label %.lr.ph, label %._crit_edge, !llvm.loop !37

._crit_edge:                                      ; preds = %.lr.ph, %.preheader
  %29 = tail call i32 @fclose(ptr noundef nonnull %3)
  ret void
}